; Function Attrs: nounwind uwtable
define ptr @l_Lean_Elab_elabSetOption___rarg___lambda__3(ptr noundef %0, ptr noundef %1, ptr noundef %2, ptr noundef %3, ptr noundef %4, ptr noundef %5, ptr noundef %6, ptr noundef %7, ptr noundef %8) #0 {
  %10 = getelementptr inbounds nuw i8, ptr %8, i64 8
  %11 = load ptr, ptr %10, align 8, !tbaa !4
  %12 = ptrtoint ptr %11 to i64
  %13 = and i64 %12, 1
  %.not = icmp eq i64 %13, 0
  br i1 %.not, label %14, label %lean_inc.exit32

14:                                               ; preds = %9
  %.val.i = load i32, ptr %11, align 4, !tbaa !8
  %15 = icmp sgt i32 %.val.i, 0
  br i1 %15, label %16, label %18, !prof !11

16:                                               ; preds = %14
  %17 = add nuw i32 %.val.i, 1
  store i32 %17, ptr %11, align 4, !tbaa !8
  br label %lean_inc.exit32

18:                                               ; preds = %14
  %.not.i = icmp eq i32 %.val.i, 0
  br i1 %.not.i, label %lean_inc.exit32, label %19

19:                                               ; preds = %18
  tail call void @lean_inc_ref_cold(ptr noundef nonnull %11) #4
  br label %lean_inc.exit32

lean_inc.exit32:                                  ; preds = %19, %18, %16, %9
  %20 = ptrtoint ptr %1 to i64
  %21 = and i64 %20, 1
  %.not40 = icmp eq i64 %21, 0
  br i1 %.not40, label %22, label %lean_inc.exit31

22:                                               ; preds = %lean_inc.exit32
  %.val.i33 = load i32, ptr %1, align 4, !tbaa !8
  %23 = icmp sgt i32 %.val.i33, 0
  br i1 %23, label %24, label %26, !prof !11

24:                                               ; preds = %22
  %25 = add nuw i32 %.val.i33, 1
  store i32 %25, ptr %1, align 4, !tbaa !8
  br label %lean_inc.exit31

26:                                               ; preds = %22
  %.not.i34 = icmp eq i32 %.val.i33, 0
  br i1 %.not.i34, label %lean_inc.exit31, label %27

27:                                               ; preds = %26
  tail call void @lean_inc_ref_cold(ptr noundef nonnull %1) #4
  br label %lean_inc.exit31

lean_inc.exit31:                                  ; preds = %27, %26, %24, %lean_inc.exit32
  tail call void @lean_inc_heartbeat() #4
  %28 = tail call noalias ptr @mi_malloc_small(i64 noundef 32) #4
  %29 = icmp eq ptr %28, null
  br i1 %29, label %30, label %lean_alloc_ctor.exit

30:                                               ; preds = %lean_inc.exit31
  tail call void @lean_internal_panic_out_of_memory() #5
  unreachable

lean_alloc_ctor.exit:                             ; preds = %lean_inc.exit31
  %31 = getelementptr inbounds nuw i8, ptr %28, i64 4
  store i32 1, ptr %28, align 4, !tbaa !8
  store i32 196640, ptr %31, align 4
  %32 = getelementptr inbounds nuw i8, ptr %28, i64 8
  store ptr %0, ptr %32, align 8, !tbaa !4
  %33 = getelementptr inbounds nuw i8, ptr %28, i64 16
  store ptr %1, ptr %33, align 8, !tbaa !4
  %34 = getelementptr inbounds nuw i8, ptr %28, i64 24
  store ptr %11, ptr %34, align 8, !tbaa !4
  tail call void @lean_inc_heartbeat() #4
  %35 = tail call noalias ptr @mi_malloc_small(i64 noundef 16) #4
  %36 = icmp eq ptr %35, null
  br i1 %36, label %37, label %lean_alloc_ctor.exit36

37:                                               ; preds = %lean_alloc_ctor.exit
  tail call void @lean_internal_panic_out_of_memory() #5
  unreachable

lean_alloc_ctor.exit36:                           ; preds = %lean_alloc_ctor.exit
  %38 = getelementptr inbounds nuw i8, ptr %35, i64 4
  store i32 1, ptr %35, align 4, !tbaa !8
  store i32 83951632, ptr %38, align 4
  %39 = getelementptr inbounds nuw i8, ptr %35, i64 8
  store ptr %28, ptr %39, align 8, !tbaa !4
  %40 = ptrtoint ptr %2 to i64
  %41 = and i64 %40, 1
  %.not41 = icmp eq i64 %41, 0
  br i1 %.not41, label %42, label %lean_inc.exit

42:                                               ; preds = %lean_alloc_ctor.exit36
  %.val.i37 = load i32, ptr %2, align 4, !tbaa !8
  %43 = icmp sgt i32 %.val.i37, 0
  br i1 %43, label %44, label %46, !prof !11

44:                                               ; preds = %42
  %45 = add nuw i32 %.val.i37, 1
  store i32 %45, ptr %2, align 4, !tbaa !8
  br label %lean_inc.exit

46:                                               ; preds = %42
  %.not.i38 = icmp eq i32 %.val.i37, 0
  br i1 %.not.i38, label %lean_inc.exit, label %47

47:                                               ; preds = %46
  tail call void @lean_inc_ref_cold(ptr noundef nonnull %2) #4
  br label %lean_inc.exit

lean_inc.exit:                                    ; preds = %47, %46, %44, %lean_alloc_ctor.exit36
  %48 = tail call ptr @l_Lean_Elab_pushInfoLeaf___rarg(ptr noundef %2, ptr noundef %3, ptr noundef nonnull %35) #4
  tail call void @lean_inc_heartbeat() #4
  %49 = tail call noalias ptr @mi_malloc_small(i64 noundef 72) #4
  %50 = icmp eq ptr %49, null
  br i1 %50, label %51, label %lean_alloc_closure.exit

51:                                               ; preds = %lean_inc.exit
  tail call void @lean_internal_panic_out_of_memory() #5
  unreachable

lean_alloc_closure.exit:                          ; preds = %lean_inc.exit
  %52 = getelementptr inbounds nuw i8, ptr %49, i64 4
  store i32 1, ptr %49, align 4, !tbaa !8
  store i32 -184549304, ptr %52, align 4
  %53 = getelementptr inbounds nuw i8, ptr %49, i64 8
  store ptr @l_Lean_Elab_elabSetOption___rarg___lambda__2___boxed, ptr %53, align 8, !tbaa !4
  %54 = getelementptr inbounds nuw i8, ptr %49, i64 16
  store i16 7, ptr %54, align 8, !tbaa !12
  %55 = getelementptr inbounds nuw i8, ptr %49, i64 18
  store i16 6, ptr %55, align 2, !tbaa !12
  %56 = getelementptr inbounds nuw i8, ptr %49, i64 24
  store ptr %4, ptr %56, align 8, !tbaa !4
  %57 = getelementptr inbounds nuw i8, ptr %49, i64 32
  store ptr %2, ptr %57, align 8, !tbaa !4
  %58 = getelementptr inbounds nuw i8, ptr %49, i64 40
  store ptr %5, ptr %58, align 8, !tbaa !4
  %59 = getelementptr inbounds nuw i8, ptr %49, i64 48
  store ptr %6, ptr %59, align 8, !tbaa !4
  %60 = getelementptr inbounds nuw i8, ptr %49, i64 56
  store ptr %1, ptr %60, align 8, !tbaa !4
  %61 = getelementptr inbounds nuw i8, ptr %49, i64 64
  store ptr %8, ptr %61, align 8, !tbaa !4
  %62 = tail call ptr @lean_apply_4(ptr noundef %7, ptr noundef nonnull inttoptr (i64 1 to ptr), ptr noundef nonnull inttoptr (i64 1 to ptr), ptr noundef %48, ptr noundef nonnull %49) #4
  ret ptr %62
}